target datalayout = "e-m:e-p270:32:32-p271:32:32-p272:64:64-i64:64-i128:128-f80:128-n8:16:32:64-S128"
target triple = "x86_64-pc-linux-gnu"

; Function Attrs: nounwind uwtable
define void @Mio_UpdateGenlib(ptr noundef %0) #0 {
  %2 = alloca ptr, align 8
  store ptr %0, ptr %2, align 8
  %3 = call ptr (...) @Abc_FrameReadLibSuper()
  %4 = icmp ne ptr %3, null
  br i1 %4, label %5, label %7

5:                                                ; preds = %1
  %6 = call ptr (...) @Abc_FrameReadLibSuper()
  call void @Map_SuperLibFree(ptr noundef %6)
  call void @Abc_FrameSetLibSuper(ptr noundef null)
  br label %7

7:                                                ; preds = %5, %1
  %8 = call ptr (...) @Abc_FrameReadLibGen()
  call void @Mio_LibraryDelete(ptr noundef %8)
  %9 = load ptr, ptr %2, align 8
  call void @Abc_FrameSetLibGen(ptr noundef %9)
  %10 = call ptr (...) @Abc_FrameReadLibGen2()
  call void @Amap_LibFree(ptr noundef %10)
  call void @Abc_FrameSetLibGen2(ptr noundef null)
  ret void
}