; Function Attrs: nounwind uwtable
define void @Mio_UpdateGenlib(ptr noundef %0) local_unnamed_addr #0 {
  %2 = tail call ptr (...) @Abc_FrameReadLibSuper() #8
  %.not = icmp eq ptr %2, null
  br i1 %.not, label %5, label %3

3:                                                ; preds = %1
  %4 = tail call ptr (...) @Abc_FrameReadLibSuper() #8
  tail call void @Map_SuperLibFree(ptr noundef %4) #8
  tail call void @Abc_FrameSetLibSuper(ptr noundef null) #8
  br label %5

5:                                                ; preds = %3, %1
  %6 = tail call ptr (...) @Abc_FrameReadLibGen() #8
  tail call void @Mio_LibraryDelete(ptr noundef %6) #8
  tail call void @Abc_FrameSetLibGen(ptr noundef %0) #8
  %7 = tail call ptr (...) @Abc_FrameReadLibGen2() #8
  tail call void @Amap_LibFree(ptr noundef %7) #8
  tail call void @Abc_FrameSetLibGen2(ptr noundef null) #8
  ret void
}